; Function Attrs: nounwind uwtable
define hidden ptr @mi_reallocn(ptr noundef %0, i64 noundef %1, i64 noundef %2) local_unnamed_addr #3 {
  %4 = tail call align 8 ptr @llvm.threadlocal.address.p0(ptr align 8 @_mi_heap_default)
  %5 = load ptr, ptr %4, align 8, !tbaa !3
  %.not.i = icmp eq i64 %1, 1
  br i1 %.not.i, label %10, label %6

6:                                                ; preds = %3
  %7 = tail call { i64, i1 } @llvm.umul.with.overflow.i64(i64 range(i64 2, 1) %1, i64 %2)
  %8 = extractvalue { i64, i1 } %7, 1
  %9 = extractvalue { i64, i1 } %7, 0
  br i1 %8, label %mi_heap_reallocn.exit, label %10, !prof !17

10:                                               ; preds = %6, %3
  %storemerge.i.ph.i = phi i64 [ %2, %3 ], [ %9, %6 ]
  %11 = tail call ptr @_mi_heap_realloc_zero(ptr noundef %5, ptr noundef %0, i64 noundef %storemerge.i.ph.i, i1 noundef zeroext false) #20
  br label %mi_heap_reallocn.exit

mi_heap_reallocn.exit:                            ; preds = %6, %10
  %.0.i = phi ptr [ %11, %10 ], [ null, %6 ]
  ret ptr %.0.i
}